target datalayout = "e-m:e-p270:32:32-p271:32:32-p272:64:64-i64:64-i128:128-f80:128-n8:16:32:64-S128"
target triple = "x86_64-pc-linux-gnu"

@hf_LZ_width = internal global i32 0, align 4
@hf_LZ_height = internal global i32 0, align 4
@hf_LZ_RGB_type = internal global i32 0, align 4
@hf_LZ_major_version = internal global i32 0, align 4
@hf_LZ_minor_version = internal global i32 0, align 4
@hf_LZ_stride = internal global i32 0, align 4
@hf_LZ_RGB_dict_id = internal global i32 0, align 4
@hf_spice_lz_magic = internal global i32 0, align 4
@hf_spice_lz_rgb_compressed_image_data = internal global i32 0, align 4
@hf_spice_topdown_flag = internal global i32 0, align 4
@hf_spice_unknown_bytes = internal global i32 0, align 4
@.str.971 = private unnamed_addr constant [40 x i8] c"LZ_RGB compressed image data (%u bytes)\00", align 1

; Function Attrs: null_pointer_is_valid sspstrong uwtable
define internal i32 @dissect_ImageLZ_common_header(ptr noundef %0, ptr noundef %1, i32 noundef %2) #0 {
  %4 = alloca ptr, align 8
  %5 = alloca ptr, align 8
  %6 = alloca i32, align 4
  store ptr %0, ptr %4, align 8
  store ptr %1, ptr %5, align 8
  store i32 %2, ptr %6, align 4
  %7 = load ptr, ptr %5, align 8
  %8 = load i32, ptr @hf_spice_lz_magic, align 4
  %9 = load ptr, ptr %4, align 8
  %10 = load i32, ptr %6, align 4
  %11 = call ptr @proto_tree_add_item(ptr noundef %7, i32 noundef %8, ptr noundef %9, i32 noundef %10, i32 noundef 4, i32 noundef 0)
  %12 = load ptr, ptr %5, align 8
  %13 = load i32, ptr @hf_LZ_major_version, align 4
  %14 = load ptr, ptr %4, align 8
  %15 = load i32, ptr %6, align 4
  %16 = add i32 %15, 4
  %17 = call ptr @proto_tree_add_item(ptr noundef %12, i32 noundef %13, ptr noundef %14, i32 noundef %16, i32 noundef 2, i32 noundef 0)
  %18 = load ptr, ptr %5, align 8
  %19 = load i32, ptr @hf_LZ_minor_version, align 4
  %20 = load ptr, ptr %4, align 8
  %21 = load i32, ptr %6, align 4
  %22 = add i32 %21, 6
  %23 = call ptr @proto_tree_add_item(ptr noundef %18, i32 noundef %19, ptr noundef %20, i32 noundef %22, i32 noundef 2, i32 noundef 0)
  ret i32 8
}

; Function Attrs: null_pointer_is_valid sspstrong uwtable
define internal i32 @dissect_ImageLZ_common(ptr noundef %0, ptr noundef %1, i32 noundef %2, i1 noundef zeroext %3, i32 noundef %4) #0 {
  %6 = alloca ptr, align 8
  %7 = alloca ptr, align 8
  %8 = alloca i32, align 4
  %9 = alloca i8, align 1
  %10 = alloca i32, align 4
  %11 = alloca i8, align 1
  %12 = alloca i32, align 4
  store ptr %0, ptr %6, align 8
  store ptr %1, ptr %7, align 8
  store i32 %2, ptr %8, align 4
  %13 = zext i1 %3 to i8
  store i8 %13, ptr %9, align 1
  store i32 %4, ptr %10, align 4
  call void @llvm.lifetime.start.p0(i64 1, ptr %11) #6
  call void @llvm.lifetime.start.p0(i64 4, ptr %12) #6
  %14 = load i32, ptr %8, align 4
  %15 = load i32, ptr %10, align 4
  %16 = add i32 %14, %15
  store i32 %16, ptr %12, align 4
  %17 = load ptr, ptr %6, align 8
  %18 = load ptr, ptr %7, align 8
  %19 = load i32, ptr %8, align 4
  %20 = call i32 @dissect_ImageLZ_common_header(ptr noundef %17, ptr noundef %18, i32 noundef %19)
  %21 = load i32, ptr %8, align 4
  %22 = add i32 %21, %20
  store i32 %22, ptr %8, align 4
  %23 = load i8, ptr %9, align 1, !range !6, !noundef !7
  %24 = trunc i8 %23 to i1
  br i1 %24, label %25, label %28

25:                                               ; preds = %5
  %26 = load i32, ptr %8, align 4
  %27 = add i32 %26, 3
  store i32 %27, ptr %8, align 4
  br label %28

28:                                               ; preds = %25, %5
  %29 = load ptr, ptr %7, align 8
  %30 = load i32, ptr @hf_LZ_RGB_type, align 4
  %31 = load ptr, ptr %6, align 8
  %32 = load i32, ptr %8, align 4
  %33 = call ptr @proto_tree_add_item(ptr noundef %29, i32 noundef %30, ptr noundef %31, i32 noundef %32, i32 noundef 1, i32 noundef 0)
  %34 = load ptr, ptr %6, align 8
  %35 = load i32, ptr %8, align 4
  %36 = call zeroext i8 @tvb_get_uint8(ptr noundef %34, i32 noundef %35)
  store i8 %36, ptr %11, align 1
  %37 = load i32, ptr %8, align 4
  %38 = add i32 %37, 1
  store i32 %38, ptr %8, align 4
  %39 = load i8, ptr %11, align 1
  %40 = zext i8 %39 to i32
  %41 = and i32 %40, 15
  switch i32 %41, label %121 [
    i32 6, label %42
    i32 7, label %42
    i32 8, label %42
    i32 9, label %82
    i32 10, label %85
  ]

42:                                               ; preds = %28, %28, %28
  %43 = load ptr, ptr %7, align 8
  %44 = load i32, ptr @hf_LZ_width, align 4
  %45 = load ptr, ptr %6, align 8
  %46 = load i32, ptr %8, align 4
  %47 = call ptr @proto_tree_add_item(ptr noundef %43, i32 noundef %44, ptr noundef %45, i32 noundef %46, i32 noundef 4, i32 noundef 0)
  %48 = load i32, ptr %8, align 4
  %49 = add i32 %48, 4
  store i32 %49, ptr %8, align 4
  %50 = load ptr, ptr %7, align 8
  %51 = load i32, ptr @hf_LZ_height, align 4
  %52 = load ptr, ptr %6, align 8
  %53 = load i32, ptr %8, align 4
  %54 = call ptr @proto_tree_add_item(ptr noundef %50, i32 noundef %51, ptr noundef %52, i32 noundef %53, i32 noundef 4, i32 noundef 0)
  %55 = load i32, ptr %8, align 4
  %56 = add i32 %55, 4
  store i32 %56, ptr %8, align 4
  %57 = load ptr, ptr %7, align 8
  %58 = load i32, ptr @hf_LZ_stride, align 4
  %59 = load ptr, ptr %6, align 8
  %60 = load i32, ptr %8, align 4
  %61 = call ptr @proto_tree_add_item(ptr noundef %57, i32 noundef %58, ptr noundef %59, i32 noundef %60, i32 noundef 4, i32 noundef 0)
  %62 = load i32, ptr %8, align 4
  %63 = add i32 %62, 4
  store i32 %63, ptr %8, align 4
  %64 = load ptr, ptr %7, align 8
  %65 = load i32, ptr @hf_LZ_RGB_dict_id, align 4
  %66 = load ptr, ptr %6, align 8
  %67 = load i32, ptr %8, align 4
  %68 = call ptr @proto_tree_add_item(ptr noundef %64, i32 noundef %65, ptr noundef %66, i32 noundef %67, i32 noundef 8, i32 noundef 0)
  %69 = load i32, ptr %8, align 4
  %70 = add i32 %69, 8
  store i32 %70, ptr %8, align 4
  %71 = load ptr, ptr %7, align 8
  %72 = load i32, ptr @hf_spice_lz_rgb_compressed_image_data, align 4
  %73 = load ptr, ptr %6, align 8
  %74 = load i32, ptr %8, align 4
  %75 = load i32, ptr %12, align 4
  %76 = load i32, ptr %8, align 4
  %77 = sub i32 %75, %76
  %78 = load i32, ptr %12, align 4
  %79 = load i32, ptr %8, align 4
  %80 = sub i32 %78, %79
  %81 = call ptr (ptr, i32, ptr, i32, i32, ptr, ptr, ...) @proto_tree_add_bytes_format(ptr noundef %71, i32 noundef %72, ptr noundef %73, i32 noundef %74, i32 noundef %77, ptr noundef null, ptr noundef @.str.971, i32 noundef %80)
  br label %161

82:                                               ; preds = %28
  %83 = load i32, ptr %8, align 4
  %84 = add i32 %83, 2
  store i32 %84, ptr %8, align 4
  br label %161

85:                                               ; preds = %28
  %86 = load ptr, ptr %7, align 8
  %87 = load i32, ptr @hf_LZ_width, align 4
  %88 = load ptr, ptr %6, align 8
  %89 = load i32, ptr %8, align 4
  %90 = call ptr @proto_tree_add_item(ptr noundef %86, i32 noundef %87, ptr noundef %88, i32 noundef %89, i32 noundef 4, i32 noundef 0)
  %91 = load i32, ptr %8, align 4
  %92 = add i32 %91, 4
  store i32 %92, ptr %8, align 4
  %93 = load ptr, ptr %7, align 8
  %94 = load i32, ptr @hf_LZ_height, align 4
  %95 = load ptr, ptr %6, align 8
  %96 = load i32, ptr %8, align 4
  %97 = call ptr @proto_tree_add_item(ptr noundef %93, i32 noundef %94, ptr noundef %95, i32 noundef %96, i32 noundef 4, i32 noundef 0)
  %98 = load i32, ptr %8, align 4
  %99 = add i32 %98, 4
  store i32 %99, ptr %8, align 4
  %100 = load ptr, ptr %7, align 8
  %101 = load i32, ptr @hf_LZ_stride, align 4
  %102 = load ptr, ptr %6, align 8
  %103 = load i32, ptr %8, align 4
  %104 = call ptr @proto_tree_add_item(ptr noundef %100, i32 noundef %101, ptr noundef %102, i32 noundef %103, i32 noundef 4, i32 noundef 0)
  %105 = load i32, ptr %8, align 4
  %106 = add i32 %105, 4
  store i32 %106, ptr %8, align 4
  %107 = load ptr, ptr %7, align 8
  %108 = load i32, ptr @hf_spice_topdown_flag, align 4
  %109 = load ptr, ptr %6, align 8
  %110 = load i32, ptr %8, align 4
  %111 = call ptr @proto_tree_add_item(ptr noundef %107, i32 noundef %108, ptr noundef %109, i32 noundef %110, i32 noundef 4, i32 noundef 0)
  %112 = load i32, ptr %8, align 4
  %113 = add i32 %112, 4
  store i32 %113, ptr %8, align 4
  %114 = load ptr, ptr %7, align 8
  %115 = load i32, ptr @hf_spice_unknown_bytes, align 4
  %116 = load ptr, ptr %6, align 8
  %117 = load i32, ptr %8, align 4
  %118 = call ptr @proto_tree_add_item(ptr noundef %114, i32 noundef %115, ptr noundef %116, i32 noundef %117, i32 noundef 12, i32 noundef 0)
  %119 = load i32, ptr %8, align 4
  %120 = add i32 %119, 8
  store i32 %120, ptr %8, align 4
  br label %161

121:                                              ; preds = %28
  %122 = load ptr, ptr %7, align 8
  %123 = load i32, ptr @hf_LZ_width, align 4
  %124 = load ptr, ptr %6, align 8
  %125 = load i32, ptr %8, align 4
  %126 = call ptr @proto_tree_add_item(ptr noundef %122, i32 noundef %123, ptr noundef %124, i32 noundef %125, i32 noundef 4, i32 noundef -2147483648)
  %127 = load i32, ptr %8, align 4
  %128 = add i32 %127, 4
  store i32 %128, ptr %8, align 4
  %129 = load ptr, ptr %7, align 8
  %130 = load i32, ptr @hf_LZ_height, align 4
  %131 = load ptr, ptr %6, align 8
  %132 = load i32, ptr %8, align 4
  %133 = call ptr @proto_tree_add_item(ptr noundef %129, i32 noundef %130, ptr noundef %131, i32 noundef %132, i32 noundef 4, i32 noundef -2147483648)
  %134 = load i32, ptr %8, align 4
  %135 = add i32 %134, 4
  store i32 %135, ptr %8, align 4
  %136 = load ptr, ptr %7, align 8
  %137 = load i32, ptr @hf_LZ_stride, align 4
  %138 = load ptr, ptr %6, align 8
  %139 = load i32, ptr %8, align 4
  %140 = call ptr @proto_tree_add_item(ptr noundef %136, i32 noundef %137, ptr noundef %138, i32 noundef %139, i32 noundef 4, i32 noundef -2147483648)
  %141 = load i32, ptr %8, align 4
  %142 = add i32 %141, 4
  store i32 %142, ptr %8, align 4
  %143 = load ptr, ptr %7, align 8
  %144 = load i32, ptr @hf_LZ_RGB_dict_id, align 4
  %145 = load ptr, ptr %6, align 8
  %146 = load i32, ptr %8, align 4
  %147 = call ptr @proto_tree_add_item(ptr noundef %143, i32 noundef %144, ptr noundef %145, i32 noundef %146, i32 noundef 8, i32 noundef -2147483648)
  %148 = load i32, ptr %8, align 4
  %149 = add i32 %148, 8
  store i32 %149, ptr %8, align 4
  %150 = load ptr, ptr %7, align 8
  %151 = load i32, ptr @hf_spice_lz_rgb_compressed_image_data, align 4
  %152 = load ptr, ptr %6, align 8
  %153 = load i32, ptr %8, align 4
  %154 = load i32, ptr %12, align 4
  %155 = load i32, ptr %8, align 4
  %156 = sub i32 %154, %155
  %157 = load i32, ptr %12, align 4
  %158 = load i32, ptr %8, align 4
  %159 = sub i32 %157, %158
  %160 = call ptr (ptr, i32, ptr, i32, i32, ptr, ptr, ...) @proto_tree_add_bytes_format(ptr noundef %150, i32 noundef %151, ptr noundef %152, i32 noundef %153, i32 noundef %156, ptr noundef null, ptr noundef @.str.971, i32 noundef %159)
  br label %161

161:                                              ; preds = %121, %85, %82, %42
  %162 = load i32, ptr %8, align 4
  call void @llvm.lifetime.end.p0(i64 4, ptr %12) #6
  call void @llvm.lifetime.end.p0(i64 1, ptr %11) #6
  ret i32 %162
}