; Function Attrs: null_pointer_is_valid sspstrong uwtable
define internal fastcc void @dissect_ImageLZ_common(ptr noundef %0, ptr noundef %1, i32 noundef %2, i1 noundef zeroext %3, i32 noundef %4) unnamed_addr #0 {
  %6 = add i32 %4, %2
  %7 = load i32, ptr @hf_spice_lz_magic, align 4
  %8 = tail call ptr @proto_tree_add_item(ptr noundef %1, i32 noundef %7, ptr noundef %0, i32 noundef %2, i32 noundef 4, i32 noundef 0)
  %9 = load i32, ptr @hf_LZ_major_version, align 4
  %10 = add i32 %2, 4
  %11 = tail call ptr @proto_tree_add_item(ptr noundef %1, i32 noundef %9, ptr noundef %0, i32 noundef %10, i32 noundef 2, i32 noundef 0)
  %12 = load i32, ptr @hf_LZ_minor_version, align 4
  %13 = add i32 %2, 6
  %14 = tail call ptr @proto_tree_add_item(ptr noundef %1, i32 noundef %12, ptr noundef %0, i32 noundef %13, i32 noundef 2, i32 noundef 0)
  %spec.select.v = select i1 %3, i32 11, i32 8
  %spec.select = add i32 %spec.select.v, %2
  %15 = load i32, ptr @hf_LZ_RGB_type, align 4
  %16 = tail call ptr @proto_tree_add_item(ptr noundef %1, i32 noundef %15, ptr noundef %0, i32 noundef %spec.select, i32 noundef 1, i32 noundef 0)
  %17 = tail call zeroext i8 @tvb_get_uint8(ptr noundef %0, i32 noundef %spec.select)
  %18 = add i32 %spec.select, 1
  %19 = and i8 %17, 15
  switch i8 %19, label %51 [
    i8 6, label %20
    i8 7, label %20
    i8 8, label %20
    i8 9, label %67
    i8 10, label %36
  ]

20:                                               ; preds = %5, %5, %5
  %21 = load i32, ptr @hf_LZ_width, align 4
  %22 = tail call ptr @proto_tree_add_item(ptr noundef %1, i32 noundef %21, ptr noundef %0, i32 noundef %18, i32 noundef 4, i32 noundef 0)
  %23 = add i32 %spec.select, 5
  %24 = load i32, ptr @hf_LZ_height, align 4
  %25 = tail call ptr @proto_tree_add_item(ptr noundef %1, i32 noundef %24, ptr noundef %0, i32 noundef %23, i32 noundef 4, i32 noundef 0)
  %26 = add i32 %spec.select, 9
  %27 = load i32, ptr @hf_LZ_stride, align 4
  %28 = tail call ptr @proto_tree_add_item(ptr noundef %1, i32 noundef %27, ptr noundef %0, i32 noundef %26, i32 noundef 4, i32 noundef 0)
  %29 = add i32 %spec.select, 13
  %30 = load i32, ptr @hf_LZ_RGB_dict_id, align 4
  %31 = tail call ptr @proto_tree_add_item(ptr noundef %1, i32 noundef %30, ptr noundef %0, i32 noundef %29, i32 noundef 8, i32 noundef 0)
  %32 = add i32 %spec.select, 21
  %33 = load i32, ptr @hf_spice_lz_rgb_compressed_image_data, align 4
  %34 = sub i32 %6, %32
  %35 = tail call ptr (ptr, i32, ptr, i32, i32, ptr, ptr, ...) @proto_tree_add_bytes_format(ptr noundef %1, i32 noundef %33, ptr noundef %0, i32 noundef %32, i32 noundef %34, ptr noundef null, ptr noundef nonnull @.str.971, i32 noundef %34)
  br label %67

36:                                               ; preds = %5
  %37 = load i32, ptr @hf_LZ_width, align 4
  %38 = tail call ptr @proto_tree_add_item(ptr noundef %1, i32 noundef %37, ptr noundef %0, i32 noundef %18, i32 noundef 4, i32 noundef 0)
  %39 = add i32 %spec.select, 5
  %40 = load i32, ptr @hf_LZ_height, align 4
  %41 = tail call ptr @proto_tree_add_item(ptr noundef %1, i32 noundef %40, ptr noundef %0, i32 noundef %39, i32 noundef 4, i32 noundef 0)
  %42 = add i32 %spec.select, 9
  %43 = load i32, ptr @hf_LZ_stride, align 4
  %44 = tail call ptr @proto_tree_add_item(ptr noundef %1, i32 noundef %43, ptr noundef %0, i32 noundef %42, i32 noundef 4, i32 noundef 0)
  %45 = add i32 %spec.select, 13
  %46 = load i32, ptr @hf_spice_topdown_flag, align 4
  %47 = tail call ptr @proto_tree_add_item(ptr noundef %1, i32 noundef %46, ptr noundef %0, i32 noundef %45, i32 noundef 4, i32 noundef 0)
  %48 = add i32 %spec.select, 17
  %49 = load i32, ptr @hf_spice_unknown_bytes, align 4
  %50 = tail call ptr @proto_tree_add_item(ptr noundef %1, i32 noundef %49, ptr noundef %0, i32 noundef %48, i32 noundef 12, i32 noundef 0)
  br label %67

51:                                               ; preds = %5
  %52 = load i32, ptr @hf_LZ_width, align 4
  %53 = tail call ptr @proto_tree_add_item(ptr noundef %1, i32 noundef %52, ptr noundef %0, i32 noundef %18, i32 noundef 4, i32 noundef -2147483648)
  %54 = add i32 %spec.select, 5
  %55 = load i32, ptr @hf_LZ_height, align 4
  %56 = tail call ptr @proto_tree_add_item(ptr noundef %1, i32 noundef %55, ptr noundef %0, i32 noundef %54, i32 noundef 4, i32 noundef -2147483648)
  %57 = add i32 %spec.select, 9
  %58 = load i32, ptr @hf_LZ_stride, align 4
  %59 = tail call ptr @proto_tree_add_item(ptr noundef %1, i32 noundef %58, ptr noundef %0, i32 noundef %57, i32 noundef 4, i32 noundef -2147483648)
  %60 = add i32 %spec.select, 13
  %61 = load i32, ptr @hf_LZ_RGB_dict_id, align 4
  %62 = tail call ptr @proto_tree_add_item(ptr noundef %1, i32 noundef %61, ptr noundef %0, i32 noundef %60, i32 noundef 8, i32 noundef -2147483648)
  %63 = add i32 %spec.select, 21
  %64 = load i32, ptr @hf_spice_lz_rgb_compressed_image_data, align 4
  %65 = sub i32 %6, %63
  %66 = tail call ptr (ptr, i32, ptr, i32, i32, ptr, ptr, ...) @proto_tree_add_bytes_format(ptr noundef %1, i32 noundef %64, ptr noundef %0, i32 noundef %63, i32 noundef %65, ptr noundef null, ptr noundef nonnull @.str.971, i32 noundef %65)
  br label %67

67:                                               ; preds = %5, %51, %36, %20
  ret void
}